target datalayout = "e-m:e-p270:32:32-p271:32:32-p272:64:64-i64:64-i128:128-f80:128-n8:16:32:64-S128"
target triple = "x86_64-pc-linux-gnu"

%struct.lean_object = type { i32, i32 }

@l_Lean_Elab_Tactic_GuardExpr_colon_toMatchKind___closed__4 = internal global ptr null, align 8
@l_Lean_Elab_Tactic_GuardExpr_colon_toMatchKind___closed__6 = internal global ptr null, align 8
@l_Lean_Elab_Tactic_GuardExpr_colon_toMatchKind___closed__8 = internal global ptr null, align 8
@l_Lean_Elab_Tactic_GuardExpr_colon_toMatchKind___closed__10 = internal global ptr null, align 8
@l_Lean_Elab_Tactic_GuardExpr_colon_toMatchKind___closed__12 = internal global ptr null, align 8
@l_Lean_Elab_Tactic_GuardExpr_colon_toMatchKind___closed__13 = internal global ptr null, align 8
@l_Lean_Elab_Tactic_GuardExpr_colon_toMatchKind___closed__14 = internal global ptr null, align 8
@l_Lean_Elab_Tactic_GuardExpr_colon_toMatchKind___closed__16 = internal global ptr null, align 8
@l_Lean_Elab_Tactic_GuardExpr_colon_toMatchKind___closed__18 = internal global ptr null, align 8

; Function Attrs: inlinehint nounwind uwtable
define internal zeroext i1 @lean_is_st(ptr noundef %0) #0 {
  %2 = alloca ptr, align 8
  store ptr %0, ptr %2, align 8, !tbaa !8
  %3 = load ptr, ptr %2, align 8, !tbaa !8
  %4 = getelementptr inbounds nuw %struct.lean_object, ptr %3, i32 0, i32 0
  %5 = load i32, ptr %4, align 4, !tbaa !13
  %6 = icmp sgt i32 %5, 0
  ret i1 %6
}

; Function Attrs: inlinehint nounwind uwtable
define internal ptr @lean_usize_to_nat(i64 noundef %0) #0 {
  %2 = alloca ptr, align 8
  %3 = alloca i64, align 8
  store i64 %0, ptr %3, align 8, !tbaa !4
  %4 = load i64, ptr %3, align 8, !tbaa !4
  %5 = icmp ule i64 %4, 9223372036854775807
  %6 = zext i1 %5 to i32
  %7 = sext i32 %6 to i64
  %8 = call i64 @llvm.expect.i64(i64 %7, i64 1)
  %9 = icmp ne i64 %8, 0
  br i1 %9, label %10, label %13

10:                                               ; preds = %1
  %11 = load i64, ptr %3, align 8, !tbaa !4
  %12 = call ptr @lean_box(i64 noundef %11)
  store ptr %12, ptr %2, align 8
  br label %16

13:                                               ; preds = %1
  %14 = load i64, ptr %3, align 8, !tbaa !4
  %15 = call ptr @lean_big_usize_to_nat(i64 noundef %14)
  store ptr %15, ptr %2, align 8
  br label %16

16:                                               ; preds = %13, %10
  %17 = load ptr, ptr %2, align 8
  ret ptr %17
}

; Function Attrs: alwaysinline nounwind uwtable
define internal void @lean_dec_ref(ptr noundef %0) #3 {
  %2 = alloca ptr, align 8
  store ptr %0, ptr %2, align 8, !tbaa !8
  %3 = load ptr, ptr %2, align 8, !tbaa !8
  %4 = getelementptr inbounds nuw %struct.lean_object, ptr %3, i32 0, i32 0
  %5 = load i32, ptr %4, align 4, !tbaa !13
  %6 = icmp sgt i32 %5, 1
  %7 = zext i1 %6 to i32
  %8 = sext i32 %7 to i64
  %9 = call i64 @llvm.expect.i64(i64 %8, i64 1)
  %10 = icmp ne i64 %9, 0
  br i1 %10, label %11, label %16

11:                                               ; preds = %1
  %12 = load ptr, ptr %2, align 8, !tbaa !8
  %13 = getelementptr inbounds nuw %struct.lean_object, ptr %12, i32 0, i32 0
  %14 = load i32, ptr %13, align 4, !tbaa !13
  %15 = add i32 %14, -1
  store i32 %15, ptr %13, align 4, !tbaa !13
  br label %24

16:                                               ; preds = %1
  %17 = load ptr, ptr %2, align 8, !tbaa !8
  %18 = getelementptr inbounds nuw %struct.lean_object, ptr %17, i32 0, i32 0
  %19 = load i32, ptr %18, align 4, !tbaa !13
  %20 = icmp ne i32 %19, 0
  br i1 %20, label %21, label %23

21:                                               ; preds = %16
  %22 = load ptr, ptr %2, align 8, !tbaa !8
  call void @lean_dec_ref_cold(ptr noundef %22)
  br label %23

23:                                               ; preds = %21, %16
  br label %24

24:                                               ; preds = %23, %11
  ret void
}

; Function Attrs: inlinehint nounwind uwtable
define internal void @lean_inc_ref(ptr noundef %0) #0 {
  %2 = alloca ptr, align 8
  store ptr %0, ptr %2, align 8, !tbaa !8
  %3 = load ptr, ptr %2, align 8, !tbaa !8
  %4 = call zeroext i1 @lean_is_st(ptr noundef %3)
  %5 = zext i1 %4 to i64
  %6 = call i64 @llvm.expect.i64(i64 %5, i64 1)
  %7 = icmp ne i64 %6, 0
  br i1 %7, label %8, label %13

8:                                                ; preds = %1
  %9 = load ptr, ptr %2, align 8, !tbaa !8
  %10 = getelementptr inbounds nuw %struct.lean_object, ptr %9, i32 0, i32 0
  %11 = load i32, ptr %10, align 4, !tbaa !13
  %12 = add i32 %11, 1
  store i32 %12, ptr %10, align 4, !tbaa !13
  br label %21

13:                                               ; preds = %1
  %14 = load ptr, ptr %2, align 8, !tbaa !8
  %15 = getelementptr inbounds nuw %struct.lean_object, ptr %14, i32 0, i32 0
  %16 = load i32, ptr %15, align 4, !tbaa !13
  %17 = icmp ne i32 %16, 0
  br i1 %17, label %18, label %20

18:                                               ; preds = %13
  %19 = load ptr, ptr %2, align 8, !tbaa !8
  call void @lean_inc_ref_cold(ptr noundef %19)
  br label %20

20:                                               ; preds = %18, %13
  br label %21

21:                                               ; preds = %20, %8
  ret void
}

; Function Attrs: alwaysinline nounwind uwtable
define internal zeroext i1 @lean_is_scalar(ptr noundef %0) #3 {
  %2 = alloca ptr, align 8
  store ptr %0, ptr %2, align 8, !tbaa !8
  %3 = load ptr, ptr %2, align 8, !tbaa !8
  %4 = ptrtoint ptr %3 to i64
  %5 = and i64 %4, 1
  %6 = icmp eq i64 %5, 1
  ret i1 %6
}

; Function Attrs: inlinehint nounwind uwtable
define internal ptr @lean_unsigned_to_nat(i32 noundef %0) #0 {
  %2 = alloca i32, align 4
  store i32 %0, ptr %2, align 4, !tbaa !11
  %3 = load i32, ptr %2, align 4, !tbaa !11
  %4 = zext i32 %3 to i64
  %5 = call ptr @lean_usize_to_nat(i64 noundef %4)
  ret ptr %5
}

; Function Attrs: inlinehint nounwind uwtable
define internal ptr @lean_box(i64 noundef %0) #0 {
  %2 = alloca i64, align 8
  store i64 %0, ptr %2, align 8, !tbaa !4
  %3 = load i64, ptr %2, align 8, !tbaa !4
  %4 = shl i64 %3, 1
  %5 = or i64 %4, 1
  %6 = inttoptr i64 %5 to ptr
  ret ptr %6
}

; Function Attrs: alwaysinline nounwind uwtable
define internal void @lean_dec(ptr noundef %0) #3 {
  %2 = alloca ptr, align 8
  store ptr %0, ptr %2, align 8, !tbaa !8
  %3 = load ptr, ptr %2, align 8, !tbaa !8
  %4 = call zeroext i1 @lean_is_scalar(ptr noundef %3)
  br i1 %4, label %7, label %5

5:                                                ; preds = %1
  %6 = load ptr, ptr %2, align 8, !tbaa !8
  call void @lean_dec_ref(ptr noundef %6)
  br label %7

7:                                                ; preds = %5, %1
  ret void
}

; Function Attrs: alwaysinline nounwind uwtable
define internal void @lean_inc(ptr noundef %0) #3 {
  %2 = alloca ptr, align 8
  store ptr %0, ptr %2, align 8, !tbaa !8
  %3 = load ptr, ptr %2, align 8, !tbaa !8
  %4 = call zeroext i1 @lean_is_scalar(ptr noundef %3)
  br i1 %4, label %7, label %5

5:                                                ; preds = %1
  %6 = load ptr, ptr %2, align 8, !tbaa !8
  call void @lean_inc_ref(ptr noundef %6)
  br label %7

7:                                                ; preds = %5, %1
  ret void
}

; Function Attrs: nounwind uwtable
define ptr @l_Lean_Elab_Tactic_GuardExpr_colon_toMatchKind(ptr noundef %0) #1 {
  %2 = alloca ptr, align 8
  %3 = alloca ptr, align 8
  %4 = alloca ptr, align 8
  %5 = alloca i8, align 1
  %6 = alloca ptr, align 8
  %7 = alloca i32, align 4
  %8 = alloca ptr, align 8
  %9 = alloca ptr, align 8
  %10 = alloca ptr, align 8
  %11 = alloca i8, align 1
  %12 = alloca ptr, align 8
  %13 = alloca i8, align 1
  %14 = alloca ptr, align 8
  %15 = alloca i8, align 1
  %16 = alloca ptr, align 8
  %17 = alloca i8, align 1
  %18 = alloca ptr, align 8
  %19 = alloca ptr, align 8
  %20 = alloca ptr, align 8
  %21 = alloca ptr, align 8
  %22 = alloca ptr, align 8
  store ptr %0, ptr %3, align 8, !tbaa !8
  br label %23

23:                                               ; preds = %1
  call void @llvm.lifetime.start.p0(i64 8, ptr %4) #7
  call void @llvm.lifetime.start.p0(i64 1, ptr %5) #7
  %24 = load ptr, ptr @l_Lean_Elab_Tactic_GuardExpr_colon_toMatchKind___closed__4, align 8, !tbaa !8
  store ptr %24, ptr %4, align 8, !tbaa !8
  %25 = load ptr, ptr %3, align 8, !tbaa !8
  call void @lean_inc(ptr noundef %25)
  %26 = load ptr, ptr %3, align 8, !tbaa !8
  %27 = load ptr, ptr %4, align 8, !tbaa !8
  %28 = call zeroext i8 @l_Lean_Syntax_isOfKind(ptr noundef %26, ptr noundef %27)
  store i8 %28, ptr %5, align 1, !tbaa !10
  %29 = load i8, ptr %5, align 1, !tbaa !10
  %30 = zext i8 %29 to i32
  %31 = icmp eq i32 %30, 0
  br i1 %31, label %32, label %36

32:                                               ; preds = %23
  call void @llvm.lifetime.start.p0(i64 8, ptr %6) #7
  %33 = load ptr, ptr %3, align 8, !tbaa !8
  call void @lean_dec(ptr noundef %33)
  %34 = call ptr @lean_box(i64 noundef 0)
  store ptr %34, ptr %6, align 8, !tbaa !8
  %35 = load ptr, ptr %6, align 8, !tbaa !8
  store ptr %35, ptr %2, align 8
  store i32 1, ptr %7, align 4
  call void @llvm.lifetime.end.p0(i64 8, ptr %6) #7
  br label %98

36:                                               ; preds = %23
  call void @llvm.lifetime.start.p0(i64 8, ptr %8) #7
  call void @llvm.lifetime.start.p0(i64 8, ptr %9) #7
  call void @llvm.lifetime.start.p0(i64 8, ptr %10) #7
  call void @llvm.lifetime.start.p0(i64 1, ptr %11) #7
  %37 = call ptr @lean_unsigned_to_nat(i32 noundef 0)
  store ptr %37, ptr %8, align 8, !tbaa !8
  %38 = load ptr, ptr %3, align 8, !tbaa !8
  %39 = load ptr, ptr %8, align 8, !tbaa !8
  %40 = call ptr @l_Lean_Syntax_getArg(ptr noundef %38, ptr noundef %39)
  store ptr %40, ptr %9, align 8, !tbaa !8
  %41 = load ptr, ptr %3, align 8, !tbaa !8
  call void @lean_dec(ptr noundef %41)
  %42 = load ptr, ptr @l_Lean_Elab_Tactic_GuardExpr_colon_toMatchKind___closed__6, align 8, !tbaa !8
  store ptr %42, ptr %10, align 8, !tbaa !8
  %43 = load ptr, ptr %9, align 8, !tbaa !8
  call void @lean_inc(ptr noundef %43)
  %44 = load ptr, ptr %9, align 8, !tbaa !8
  %45 = load ptr, ptr %10, align 8, !tbaa !8
  %46 = call zeroext i8 @l_Lean_Syntax_isOfKind(ptr noundef %44, ptr noundef %45)
  store i8 %46, ptr %11, align 1, !tbaa !10
  %47 = load i8, ptr %11, align 1, !tbaa !10
  %48 = zext i8 %47 to i32
  %49 = icmp eq i32 %48, 0
  br i1 %49, label %50, label %93

50:                                               ; preds = %36
  call void @llvm.lifetime.start.p0(i64 8, ptr %12) #7
  call void @llvm.lifetime.start.p0(i64 1, ptr %13) #7
  %51 = load ptr, ptr @l_Lean_Elab_Tactic_GuardExpr_colon_toMatchKind___closed__8, align 8, !tbaa !8
  store ptr %51, ptr %12, align 8, !tbaa !8
  %52 = load ptr, ptr %9, align 8, !tbaa !8
  call void @lean_inc(ptr noundef %52)
  %53 = load ptr, ptr %9, align 8, !tbaa !8
  %54 = load ptr, ptr %12, align 8, !tbaa !8
  %55 = call zeroext i8 @l_Lean_Syntax_isOfKind(ptr noundef %53, ptr noundef %54)
  store i8 %55, ptr %13, align 1, !tbaa !10
  %56 = load i8, ptr %13, align 1, !tbaa !10
  %57 = zext i8 %56 to i32
  %58 = icmp eq i32 %57, 0
  br i1 %58, label %59, label %88

59:                                               ; preds = %50
  call void @llvm.lifetime.start.p0(i64 8, ptr %14) #7
  call void @llvm.lifetime.start.p0(i64 1, ptr %15) #7
  %60 = load ptr, ptr @l_Lean_Elab_Tactic_GuardExpr_colon_toMatchKind___closed__10, align 8, !tbaa !8
  store ptr %60, ptr %14, align 8, !tbaa !8
  %61 = load ptr, ptr %9, align 8, !tbaa !8
  call void @lean_inc(ptr noundef %61)
  %62 = load ptr, ptr %9, align 8, !tbaa !8
  %63 = load ptr, ptr %14, align 8, !tbaa !8
  %64 = call zeroext i8 @l_Lean_Syntax_isOfKind(ptr noundef %62, ptr noundef %63)
  store i8 %64, ptr %15, align 1, !tbaa !10
  %65 = load i8, ptr %15, align 1, !tbaa !10
  %66 = zext i8 %65 to i32
  %67 = icmp eq i32 %66, 0
  br i1 %67, label %68, label %83

68:                                               ; preds = %59
  call void @llvm.lifetime.start.p0(i64 8, ptr %16) #7
  call void @llvm.lifetime.start.p0(i64 1, ptr %17) #7
  %69 = load ptr, ptr @l_Lean_Elab_Tactic_GuardExpr_colon_toMatchKind___closed__12, align 8, !tbaa !8
  store ptr %69, ptr %16, align 8, !tbaa !8
  %70 = load ptr, ptr %9, align 8, !tbaa !8
  %71 = load ptr, ptr %16, align 8, !tbaa !8
  %72 = call zeroext i8 @l_Lean_Syntax_isOfKind(ptr noundef %70, ptr noundef %71)
  store i8 %72, ptr %17, align 1, !tbaa !10
  %73 = load i8, ptr %17, align 1, !tbaa !10
  %74 = zext i8 %73 to i32
  %75 = icmp eq i32 %74, 0
  br i1 %75, label %76, label %79

76:                                               ; preds = %68
  call void @llvm.lifetime.start.p0(i64 8, ptr %18) #7
  %77 = call ptr @lean_box(i64 noundef 0)
  store ptr %77, ptr %18, align 8, !tbaa !8
  %78 = load ptr, ptr %18, align 8, !tbaa !8
  store ptr %78, ptr %2, align 8
  store i32 1, ptr %7, align 4
  call void @llvm.lifetime.end.p0(i64 8, ptr %18) #7
  br label %82

79:                                               ; preds = %68
  call void @llvm.lifetime.start.p0(i64 8, ptr %19) #7
  %80 = load ptr, ptr @l_Lean_Elab_Tactic_GuardExpr_colon_toMatchKind___closed__13, align 8, !tbaa !8
  store ptr %80, ptr %19, align 8, !tbaa !8
  %81 = load ptr, ptr %19, align 8, !tbaa !8
  store ptr %81, ptr %2, align 8
  store i32 1, ptr %7, align 4
  call void @llvm.lifetime.end.p0(i64 8, ptr %19) #7
  br label %82

82:                                               ; preds = %79, %76
  call void @llvm.lifetime.end.p0(i64 1, ptr %17) #7
  call void @llvm.lifetime.end.p0(i64 8, ptr %16) #7
  br label %87

83:                                               ; preds = %59
  call void @llvm.lifetime.start.p0(i64 8, ptr %20) #7
  %84 = load ptr, ptr %9, align 8, !tbaa !8
  call void @lean_dec(ptr noundef %84)
  %85 = load ptr, ptr @l_Lean_Elab_Tactic_GuardExpr_colon_toMatchKind___closed__14, align 8, !tbaa !8
  store ptr %85, ptr %20, align 8, !tbaa !8
  %86 = load ptr, ptr %20, align 8, !tbaa !8
  store ptr %86, ptr %2, align 8
  store i32 1, ptr %7, align 4
  call void @llvm.lifetime.end.p0(i64 8, ptr %20) #7
  br label %87

87:                                               ; preds = %83, %82
  call void @llvm.lifetime.end.p0(i64 1, ptr %15) #7
  call void @llvm.lifetime.end.p0(i64 8, ptr %14) #7
  br label %92

88:                                               ; preds = %50
  call void @llvm.lifetime.start.p0(i64 8, ptr %21) #7
  %89 = load ptr, ptr %9, align 8, !tbaa !8
  call void @lean_dec(ptr noundef %89)
  %90 = load ptr, ptr @l_Lean_Elab_Tactic_GuardExpr_colon_toMatchKind___closed__16, align 8, !tbaa !8
  store ptr %90, ptr %21, align 8, !tbaa !8
  %91 = load ptr, ptr %21, align 8, !tbaa !8
  store ptr %91, ptr %2, align 8
  store i32 1, ptr %7, align 4
  call void @llvm.lifetime.end.p0(i64 8, ptr %21) #7
  br label %92

92:                                               ; preds = %88, %87
  call void @llvm.lifetime.end.p0(i64 1, ptr %13) #7
  call void @llvm.lifetime.end.p0(i64 8, ptr %12) #7
  br label %97

93:                                               ; preds = %36
  call void @llvm.lifetime.start.p0(i64 8, ptr %22) #7
  %94 = load ptr, ptr %9, align 8, !tbaa !8
  call void @lean_dec(ptr noundef %94)
  %95 = load ptr, ptr @l_Lean_Elab_Tactic_GuardExpr_colon_toMatchKind___closed__18, align 8, !tbaa !8
  store ptr %95, ptr %22, align 8, !tbaa !8
  %96 = load ptr, ptr %22, align 8, !tbaa !8
  store ptr %96, ptr %2, align 8
  store i32 1, ptr %7, align 4
  call void @llvm.lifetime.end.p0(i64 8, ptr %22) #7
  br label %97

97:                                               ; preds = %93, %92
  call void @llvm.lifetime.end.p0(i64 1, ptr %11) #7
  call void @llvm.lifetime.end.p0(i64 8, ptr %10) #7
  call void @llvm.lifetime.end.p0(i64 8, ptr %9) #7
  call void @llvm.lifetime.end.p0(i64 8, ptr %8) #7
  br label %98

98:                                               ; preds = %97, %32
  call void @llvm.lifetime.end.p0(i64 1, ptr %5) #7
  call void @llvm.lifetime.end.p0(i64 8, ptr %4) #7
  %99 = load ptr, ptr %2, align 8
  ret ptr %99
}